; Function Attrs: null_pointer_is_valid sspstrong uwtable
define i32 @dissect_ndr_uint8(ptr noundef %0, i32 noundef %1, ptr noundef %2, ptr noundef %3, ptr noundef readonly captures(none) %4, ptr noundef %5, i32 noundef %6, ptr noundef %7) local_unnamed_addr #0 {
  %.not = icmp eq ptr %7, null
  br i1 %.not, label %10, label %9

9:                                                ; preds = %8
  store i8 0, ptr %7, align 1
  br label %10

10:                                               ; preds = %9, %8
  %11 = getelementptr inbounds nuw i8, ptr %4, i64 25
  %12 = load i8, ptr %11, align 1, !range !6, !noundef !7
  %13 = trunc nuw i8 %12 to i1
  br i1 %13, label %16, label %14

14:                                               ; preds = %10
  %15 = tail call i32 @dissect_dcerpc_uint8(ptr noundef %0, i32 noundef %1, ptr noundef %2, ptr noundef %3, ptr noundef %5, i32 noundef %6, ptr noundef %7)
  br label %16

16:                                               ; preds = %10, %14
  %.0 = phi i32 [ %15, %14 ], [ %1, %10 ]
  ret i32 %.0
}